target datalayout = "e-m:e-p270:32:32-p271:32:32-p272:64:64-i64:64-i128:128-f80:128-n8:16:32:64-S128"
target triple = "x86_64-pc-linux-gnu"

%"class.Assimp::FBX::Element" = type { ptr, %"class.std::vector", ptr }
%"class.std::vector" = type { %"struct.std::_Vector_base" }
%"struct.std::_Vector_base" = type { %"struct.std::_Vector_base<const Assimp::FBX::Token *, std::allocator<const Assimp::FBX::Token *>>::_Vector_impl" }
%"struct.std::_Vector_base<const Assimp::FBX::Token *, std::allocator<const Assimp::FBX::Token *>>::_Vector_impl" = type { %"struct.std::_Vector_base<const Assimp::FBX::Token *, std::allocator<const Assimp::FBX::Token *>>::_Vector_impl_data" }
%"struct.std::_Vector_base<const Assimp::FBX::Token *, std::allocator<const Assimp::FBX::Token *>>::_Vector_impl_data" = type { ptr, ptr, ptr }

@.str.2 = private unnamed_addr constant [10 x i8] c"FBX-DOM: \00", align 1

; Function Attrs: mustprogress nounwind uwtable
define linkonce_odr hidden noundef nonnull align 8 dereferenceable(36) ptr @_ZNK6Assimp3FBX7Element8KeyTokenEv(ptr noundef nonnull align 8 dereferenceable(40) %0) #6 comdat align 2 {
  %2 = alloca ptr, align 8
  store ptr %0, ptr %2, align 8
  %3 = load ptr, ptr %2, align 8
  %4 = getelementptr inbounds nuw %"class.Assimp::FBX::Element", ptr %3, i32 0, i32 0
  %5 = load ptr, ptr %4, align 8
  ret ptr %5
}

; Function Attrs: mustprogress uwtable
define hidden void @_ZN6Assimp3FBX4Util10DOMWarningERKNSt7__cxx1112basic_stringIcSt11char_traitsIcESaIcEEEPKNS0_7ElementE(ptr noundef nonnull align 8 dereferenceable(32) %0, ptr noundef %1) #4 {
  %3 = alloca ptr, align 8
  %4 = alloca ptr, align 8
  store ptr %0, ptr %3, align 8
  store ptr %1, ptr %4, align 8
  %5 = load ptr, ptr %4, align 8
  %6 = icmp ne ptr %5, null
  br i1 %6, label %7, label %11

7:                                                ; preds = %2
  %8 = load ptr, ptr %3, align 8
  %9 = load ptr, ptr %4, align 8
  %10 = call noundef nonnull align 8 dereferenceable(36) ptr @_ZNK6Assimp3FBX7Element8KeyTokenEv(ptr noundef nonnull align 8 dereferenceable(40) %9)
  call void @_ZN6Assimp3FBX4Util10DOMWarningERKNSt7__cxx1112basic_stringIcSt11char_traitsIcESaIcEEERKNS0_5TokenE(ptr noundef nonnull align 8 dereferenceable(32) %8, ptr noundef nonnull align 8 dereferenceable(36) %10)
  br label %17

11:                                               ; preds = %2
  %12 = call noundef ptr @_ZN6Assimp13DefaultLogger3getEv()
  %13 = icmp ne ptr %12, null
  br i1 %13, label %14, label %17

14:                                               ; preds = %11
  %15 = call noundef ptr @_ZN6Assimp13DefaultLogger3getEv()
  %16 = load ptr, ptr %3, align 8
  call void @_ZN6Assimp6Logger4warnIJRA10_KcRKNSt7__cxx1112basic_stringIcSt11char_traitsIcESaIcEEEEEEvDpOT_(ptr noundef nonnull align 8 dereferenceable(12) %15, ptr noundef nonnull align 1 dereferenceable(10) @.str.2, ptr noundef nonnull align 8 dereferenceable(32) %16)
  br label %17

17:                                               ; preds = %7, %14, %11
  ret void
}