; Function Attrs: mustprogress uwtable
define hidden void @_ZN6Assimp3FBX4Util10DOMWarningERKNSt7__cxx1112basic_stringIcSt11char_traitsIcESaIcEEEPKNS0_7ElementE(ptr noundef nonnull align 8 dereferenceable(32) %0, ptr noundef readonly captures(address_is_null) %1) local_unnamed_addr #3 {
  %.not = icmp eq ptr %1, null
  br i1 %.not, label %5, label %3

3:                                                ; preds = %2
  %4 = load ptr, ptr %1, align 8
  tail call void @_ZN6Assimp3FBX4Util10DOMWarningERKNSt7__cxx1112basic_stringIcSt11char_traitsIcESaIcEEERKNS0_5TokenE(ptr noundef nonnull align 8 dereferenceable(32) %0, ptr noundef nonnull align 8 dereferenceable(36) %4)
  br label %9

5:                                                ; preds = %2
  %6 = tail call noundef ptr @_ZN6Assimp13DefaultLogger3getEv()
  %.not4 = icmp eq ptr %6, null
  br i1 %.not4, label %9, label %7

7:                                                ; preds = %5
  %8 = tail call noundef ptr @_ZN6Assimp13DefaultLogger3getEv()
  tail call void @_ZN6Assimp6Logger4warnIJRA10_KcRKNSt7__cxx1112basic_stringIcSt11char_traitsIcESaIcEEEEEEvDpOT_(ptr noundef nonnull align 8 dereferenceable(12) %8, ptr noundef nonnull align 1 dereferenceable(10) @.str.2, ptr noundef nonnull align 8 dereferenceable(32) %0)
  br label %9

9:                                                ; preds = %7, %5, %3
  ret void
}